target datalayout = "e-m:e-p270:32:32-p271:32:32-p272:64:64-i64:64-i128:128-f80:128-n8:16:32:64-S128"
target triple = "x86_64-pc-linux-gnu"

%struct.grep_opt = type { ptr, ptr, ptr, ptr, ptr, ptr, i32, i32, i32, i32, i32, i32, i32, i32, i32, i32, i32, i32, i32, i32, i32, i32, i32, i32, i32, i32, i32, i32, i32, i32, i32, i32, [9 x [75 x i8]], i32, i32, i32, i32, i32, i32, i32, ptr, ptr, ptr }
%struct.grep_pat = type { ptr, ptr, i32, i32, ptr, i64, i32, %struct.re_pattern_buffer, ptr, ptr, ptr, ptr, ptr, i32, i8 }
%struct.re_pattern_buffer = type { ptr, i64, i64, i64, ptr, ptr, i64, i8 }

; Function Attrs: nounwind uwtable
define dso_local ptr @grep_opt_dup(ptr noundef %0) #0 {
  %2 = alloca ptr, align 8
  %3 = alloca ptr, align 8
  %4 = alloca ptr, align 8
  store ptr %0, ptr %2, align 8, !tbaa !19
  call void @llvm.lifetime.start.p0(i64 8, ptr %3) #11
  call void @llvm.lifetime.start.p0(i64 8, ptr %4) #11
  %5 = call ptr @xmalloc(i64 noundef 880)
  store ptr %5, ptr %4, align 8, !tbaa !19
  %6 = load ptr, ptr %4, align 8, !tbaa !19
  %7 = load ptr, ptr %2, align 8, !tbaa !19
  call void @llvm.memcpy.p0.p0.i64(ptr align 8 %6, ptr align 8 %7, i64 880, i1 false), !tbaa.struct !61
  %8 = load ptr, ptr %4, align 8, !tbaa !19
  %9 = getelementptr inbounds nuw %struct.grep_opt, ptr %8, i32 0, i32 0
  store ptr null, ptr %9, align 8, !tbaa !63
  %10 = load ptr, ptr %4, align 8, !tbaa !19
  %11 = getelementptr inbounds nuw %struct.grep_opt, ptr %10, i32 0, i32 0
  %12 = load ptr, ptr %4, align 8, !tbaa !19
  %13 = getelementptr inbounds nuw %struct.grep_opt, ptr %12, i32 0, i32 1
  store ptr %11, ptr %13, align 8, !tbaa !40
  %14 = load ptr, ptr %2, align 8, !tbaa !19
  %15 = getelementptr inbounds nuw %struct.grep_opt, ptr %14, i32 0, i32 0
  %16 = load ptr, ptr %15, align 8, !tbaa !63
  store ptr %16, ptr %3, align 8, !tbaa !44
  br label %17

17:                                               ; preds = %51, %1
  %18 = load ptr, ptr %3, align 8, !tbaa !44
  %19 = icmp ne ptr %18, null
  br i1 %19, label %20, label %55

20:                                               ; preds = %17
  %21 = load ptr, ptr %3, align 8, !tbaa !44
  %22 = getelementptr inbounds nuw %struct.grep_pat, ptr %21, i32 0, i32 3
  %23 = load i32, ptr %22, align 4, !tbaa !54
  %24 = icmp eq i32 %23, 1
  br i1 %24, label %25, label %33

25:                                               ; preds = %20
  %26 = load ptr, ptr %4, align 8, !tbaa !19
  %27 = load ptr, ptr %3, align 8, !tbaa !44
  %28 = getelementptr inbounds nuw %struct.grep_pat, ptr %27, i32 0, i32 6
  %29 = load i32, ptr %28, align 8, !tbaa !55
  %30 = load ptr, ptr %3, align 8, !tbaa !44
  %31 = getelementptr inbounds nuw %struct.grep_pat, ptr %30, i32 0, i32 4
  %32 = load ptr, ptr %31, align 8, !tbaa !46
  call void @append_header_grep_pattern(ptr noundef %26, i32 noundef %29, ptr noundef %32)
  br label %50

33:                                               ; preds = %20
  %34 = load ptr, ptr %4, align 8, !tbaa !19
  %35 = load ptr, ptr %3, align 8, !tbaa !44
  %36 = getelementptr inbounds nuw %struct.grep_pat, ptr %35, i32 0, i32 4
  %37 = load ptr, ptr %36, align 8, !tbaa !46
  %38 = load ptr, ptr %3, align 8, !tbaa !44
  %39 = getelementptr inbounds nuw %struct.grep_pat, ptr %38, i32 0, i32 5
  %40 = load i64, ptr %39, align 8, !tbaa !51
  %41 = load ptr, ptr %3, align 8, !tbaa !44
  %42 = getelementptr inbounds nuw %struct.grep_pat, ptr %41, i32 0, i32 1
  %43 = load ptr, ptr %42, align 8, !tbaa !52
  %44 = load ptr, ptr %3, align 8, !tbaa !44
  %45 = getelementptr inbounds nuw %struct.grep_pat, ptr %44, i32 0, i32 2
  %46 = load i32, ptr %45, align 8, !tbaa !53
  %47 = load ptr, ptr %3, align 8, !tbaa !44
  %48 = getelementptr inbounds nuw %struct.grep_pat, ptr %47, i32 0, i32 3
  %49 = load i32, ptr %48, align 4, !tbaa !54
  call void @append_grep_pat(ptr noundef %34, ptr noundef %37, i64 noundef %40, ptr noundef %43, i32 noundef %46, i32 noundef %49)
  br label %50

50:                                               ; preds = %33, %25
  br label %51

51:                                               ; preds = %50
  %52 = load ptr, ptr %3, align 8, !tbaa !44
  %53 = getelementptr inbounds nuw %struct.grep_pat, ptr %52, i32 0, i32 0
  %54 = load ptr, ptr %53, align 8, !tbaa !59
  store ptr %54, ptr %3, align 8, !tbaa !44
  br label %17, !llvm.loop !64

55:                                               ; preds = %17
  %56 = load ptr, ptr %4, align 8, !tbaa !19
  call void @llvm.lifetime.end.p0(i64 8, ptr %4) #11
  call void @llvm.lifetime.end.p0(i64 8, ptr %3) #11
  ret ptr %56
}