; Function Attrs: nounwind uwtable
define dso_local noundef ptr @grep_opt_dup(ptr noundef readonly captures(none) %0) local_unnamed_addr #0 {
  %2 = tail call ptr @xmalloc(i64 noundef 880) #18
  tail call void @llvm.memcpy.p0.p0.i64(ptr noundef nonnull align 8 dereferenceable(880) %2, ptr noundef nonnull align 8 dereferenceable(880) %0, i64 880, i1 false), !tbaa.struct !46
  store ptr null, ptr %2, align 8, !tbaa !51
  %3 = getelementptr inbounds nuw i8, ptr %2, i64 8
  store ptr %2, ptr %3, align 8, !tbaa !26
  %.020 = load ptr, ptr %0, align 8, !tbaa !43
  %.not21 = icmp eq ptr %.020, null
  br i1 %.not21, label %._crit_edge, label %.lr.ph

.lr.ph:                                           ; preds = %1, %21
  %.022 = phi ptr [ %.0, %21 ], [ %.020, %1 ]
  %4 = getelementptr inbounds nuw i8, ptr %.022, i64 20
  %5 = load i32, ptr %4, align 4, !tbaa !39
  %6 = icmp eq i32 %5, 1
  br i1 %6, label %7, label %12

7:                                                ; preds = %.lr.ph
  %8 = getelementptr inbounds nuw i8, ptr %.022, i64 40
  %9 = load i32, ptr %8, align 8, !tbaa !40
  %10 = getelementptr inbounds nuw i8, ptr %.022, i64 24
  %11 = load ptr, ptr %10, align 8, !tbaa !30
  tail call void @append_header_grep_pattern(ptr noundef nonnull %2, i32 noundef %9, ptr noundef %11)
  br label %21

12:                                               ; preds = %.lr.ph
  %13 = getelementptr inbounds nuw i8, ptr %.022, i64 24
  %14 = load ptr, ptr %13, align 8, !tbaa !30
  %15 = getelementptr inbounds nuw i8, ptr %.022, i64 32
  %16 = load i64, ptr %15, align 8, !tbaa !36
  %17 = getelementptr inbounds nuw i8, ptr %.022, i64 8
  %18 = load ptr, ptr %17, align 8, !tbaa !37
  %19 = getelementptr inbounds nuw i8, ptr %.022, i64 16
  %20 = load i32, ptr %19, align 8, !tbaa !38
  tail call void @append_grep_pat(ptr noundef nonnull %2, ptr noundef %14, i64 noundef %16, ptr noundef %18, i32 noundef %20, i32 noundef %5)
  br label %21

21:                                               ; preds = %7, %12
  %.0 = load ptr, ptr %.022, align 8, !tbaa !43
  %.not = icmp eq ptr %.0, null
  br i1 %.not, label %._crit_edge, label %.lr.ph, !llvm.loop !52

._crit_edge:                                      ; preds = %21, %1
  ret ptr %2
}